target datalayout = "e-m:e-p270:32:32-p271:32:32-p272:64:64-i64:64-i128:128-f80:128-n8:16:32:64-S128"
target triple = "x86_64-pc-linux-gnu"

%"class.std::vector.0" = type { %"struct.std::_Vector_base.1" }
%"struct.std::_Vector_base.1" = type { %"struct.std::_Vector_base<int, std::allocator<int>>::_Vector_impl" }
%"struct.std::_Vector_base<int, std::allocator<int>>::_Vector_impl" = type { %"struct.std::_Vector_base<int, std::allocator<int>>::_Vector_impl_data" }
%"struct.std::_Vector_base<int, std::allocator<int>>::_Vector_impl_data" = type { ptr, ptr, ptr }
%"class.std::__cxx11::basic_string" = type { %"struct.std::__cxx11::basic_string<char>::_Alloc_hider", i64, %union.anon }
%"struct.std::__cxx11::basic_string<char>::_Alloc_hider" = type { ptr }
%union.anon = type { i64, [8 x i8] }
%"struct.std::_Vector_base.70" = type { %"struct.std::_Vector_base<(anonymous namespace)::Capability<(anonymous namespace)::ClockDef>, std::allocator<(anonymous namespace)::Capability<(anonymous namespace)::ClockDef>>>::_Vector_impl" }
%"struct.std::_Vector_base<(anonymous namespace)::Capability<(anonymous namespace)::ClockDef>, std::allocator<(anonymous namespace)::Capability<(anonymous namespace)::ClockDef>>>::_Vector_impl" = type { %"struct.std::_Vector_base<(anonymous namespace)::Capability<(anonymous namespace)::ClockDef>, std::allocator<(anonymous namespace)::Capability<(anonymous namespace)::ClockDef>>>::_Vector_impl_data" }
%"struct.std::_Vector_base<(anonymous namespace)::Capability<(anonymous namespace)::ClockDef>, std::allocator<(anonymous namespace)::Capability<(anonymous namespace)::ClockDef>>>::_Vector_impl_data" = type { ptr, ptr, ptr }
%"class.Yosys::hashlib::dict.141" = type <{ %"class.std::vector.0", %"class.std::vector.142", [8 x i8] }>
%"class.std::vector.142" = type { %"struct.std::_Vector_base.143" }
%"struct.std::_Vector_base.143" = type { %"struct.std::_Vector_base<Yosys::hashlib::dict<std::__cxx11::basic_string<char>, Yosys::RTLIL::Const>::entry_t, std::allocator<Yosys::hashlib::dict<std::__cxx11::basic_string<char>, Yosys::RTLIL::Const>::entry_t>>::_Vector_impl" }
%"struct.std::_Vector_base<Yosys::hashlib::dict<std::__cxx11::basic_string<char>, Yosys::RTLIL::Const>::entry_t, std::allocator<Yosys::hashlib::dict<std::__cxx11::basic_string<char>, Yosys::RTLIL::Const>::entry_t>>::_Vector_impl" = type { %"struct.std::_Vector_base<Yosys::hashlib::dict<std::__cxx11::basic_string<char>, Yosys::RTLIL::Const>::entry_t, std::allocator<Yosys::hashlib::dict<std::__cxx11::basic_string<char>, Yosys::RTLIL::Const>::entry_t>>::_Vector_impl_data" }
%"struct.std::_Vector_base<Yosys::hashlib::dict<std::__cxx11::basic_string<char>, Yosys::RTLIL::Const>::entry_t, std::allocator<Yosys::hashlib::dict<std::__cxx11::basic_string<char>, Yosys::RTLIL::Const>::entry_t>>::_Vector_impl_data" = type { ptr, ptr, ptr }
%"struct.(anonymous namespace)::Capability.177" = type { %"struct.(anonymous namespace)::ClockDef", %"class.Yosys::hashlib::dict.141", %"class.Yosys::hashlib::dict.141" }
%"struct.(anonymous namespace)::ClockDef" = type { i32, %"class.std::__cxx11::basic_string" }

; Function Attrs: mustprogress nounwind uwtable
define internal void @_ZNSt15__new_allocatorIN12_GLOBAL__N_110CapabilityINS0_8ClockDefEEEE10deallocateEPS3_m(ptr noundef nonnull align 1 dereferenceable(1) %0, ptr noundef %1, i64 noundef %2) #7 align 2 {
  %4 = alloca ptr, align 8
  %5 = alloca ptr, align 8
  %6 = alloca i64, align 8
  store ptr %0, ptr %4, align 8, !tbaa !460
  store ptr %1, ptr %5, align 8, !tbaa !932
  store i64 %2, ptr %6, align 8, !tbaa !339
  %7 = load ptr, ptr %5, align 8, !tbaa !932
  %8 = load i64, ptr %6, align 8, !tbaa !339
  %9 = mul i64 %8, 152
  call void @_ZdlPvm(ptr noundef %7, i64 noundef %9) #22
  ret void
}

; Function Attrs: inlinehint mustprogress nounwind uwtable
define internal void @_ZSt8_DestroyIN12_GLOBAL__N_110CapabilityINS0_8ClockDefEEEEvPT_(ptr noundef %0) #5 {
  %2 = alloca ptr, align 8
  store ptr %0, ptr %2, align 8, !tbaa !932
  %3 = load ptr, ptr %2, align 8, !tbaa !932
  call void @_ZN12_GLOBAL__N_110CapabilityINS_8ClockDefEED2Ev(ptr noundef nonnull align 8 dereferenceable(152) %3) #3
  ret void
}

; Function Attrs: mustprogress uwtable
define internal void @_ZNSt16allocator_traitsISaIN12_GLOBAL__N_110CapabilityINS0_8ClockDefEEEEE10deallocateERS4_PS3_m(ptr noundef nonnull align 1 dereferenceable(1) %0, ptr noundef %1, i64 noundef %2) #4 align 2 {
  %4 = alloca ptr, align 8
  %5 = alloca ptr, align 8
  %6 = alloca i64, align 8
  store ptr %0, ptr %4, align 8, !tbaa !458
  store ptr %1, ptr %5, align 8, !tbaa !932
  store i64 %2, ptr %6, align 8, !tbaa !339
  %7 = load ptr, ptr %4, align 8, !tbaa !458
  %8 = load ptr, ptr %5, align 8, !tbaa !932
  %9 = load i64, ptr %6, align 8, !tbaa !339
  call void @_ZNSt15__new_allocatorIN12_GLOBAL__N_110CapabilityINS0_8ClockDefEEEE10deallocateEPS3_m(ptr noundef nonnull align 1 dereferenceable(1) %7, ptr noundef %8, i64 noundef %9)
  ret void
}

; Function Attrs: mustprogress uwtable
define internal void @_ZNSt12_Destroy_auxILb0EE9__destroyIPN12_GLOBAL__N_110CapabilityINS2_8ClockDefEEEEEvT_S7_(ptr noundef %0, ptr noundef %1) #4 align 2 {
  %3 = alloca ptr, align 8
  %4 = alloca ptr, align 8
  store ptr %0, ptr %3, align 8, !tbaa !932
  store ptr %1, ptr %4, align 8, !tbaa !932
  br label %5

5:                                                ; preds = %11, %2
  %6 = load ptr, ptr %3, align 8, !tbaa !932
  %7 = load ptr, ptr %4, align 8, !tbaa !932
  %8 = icmp ne ptr %6, %7
  br i1 %8, label %9, label %14

9:                                                ; preds = %5
  %10 = load ptr, ptr %3, align 8, !tbaa !932
  call void @_ZSt8_DestroyIN12_GLOBAL__N_110CapabilityINS0_8ClockDefEEEEvPT_(ptr noundef %10)
  br label %11

11:                                               ; preds = %9
  %12 = load ptr, ptr %3, align 8, !tbaa !932
  %13 = getelementptr inbounds nuw %"struct.(anonymous namespace)::Capability.177", ptr %12, i32 1
  store ptr %13, ptr %3, align 8, !tbaa !932
  br label %5, !llvm.loop !933

14:                                               ; preds = %5
  ret void
}

; Function Attrs: mustprogress nounwind uwtable
define internal void @_ZNSt15__new_allocatorIN12_GLOBAL__N_110CapabilityINS0_8ClockDefEEEED2Ev(ptr noundef nonnull align 1 dereferenceable(1) %0) unnamed_addr #7 align 2 {
  %2 = alloca ptr, align 8
  store ptr %0, ptr %2, align 8, !tbaa !460
  ret void
}

; Function Attrs: mustprogress uwtable
define internal void @_ZNSt12_Vector_baseIN12_GLOBAL__N_110CapabilityINS0_8ClockDefEEESaIS3_EE13_M_deallocateEPS3_m(ptr noundef nonnull align 8 dereferenceable(24) %0, ptr noundef %1, i64 noundef %2) #4 align 2 {
  %4 = alloca ptr, align 8
  %5 = alloca ptr, align 8
  %6 = alloca i64, align 8
  store ptr %0, ptr %4, align 8, !tbaa !454
  store ptr %1, ptr %5, align 8, !tbaa !932
  store i64 %2, ptr %6, align 8, !tbaa !339
  %7 = load ptr, ptr %4, align 8
  %8 = load ptr, ptr %5, align 8, !tbaa !932
  %9 = icmp ne ptr %8, null
  br i1 %9, label %10, label %14

10:                                               ; preds = %3
  %11 = getelementptr inbounds nuw %"struct.std::_Vector_base.70", ptr %7, i32 0, i32 0
  %12 = load ptr, ptr %5, align 8, !tbaa !932
  %13 = load i64, ptr %6, align 8, !tbaa !339
  call void @_ZNSt16allocator_traitsISaIN12_GLOBAL__N_110CapabilityINS0_8ClockDefEEEEE10deallocateERS4_PS3_m(ptr noundef nonnull align 1 dereferenceable(1) %11, ptr noundef %12, i64 noundef %13)
  br label %14

14:                                               ; preds = %10, %3
  ret void
}

; Function Attrs: inlinehint mustprogress uwtable
define internal void @_ZSt8_DestroyIPN12_GLOBAL__N_110CapabilityINS0_8ClockDefEEEEvT_S5_(ptr noundef %0, ptr noundef %1) #9 {
  %3 = alloca ptr, align 8
  %4 = alloca ptr, align 8
  store ptr %0, ptr %3, align 8, !tbaa !932
  store ptr %1, ptr %4, align 8, !tbaa !932
  %5 = load ptr, ptr %3, align 8, !tbaa !932
  %6 = load ptr, ptr %4, align 8, !tbaa !932
  call void @_ZNSt12_Destroy_auxILb0EE9__destroyIPN12_GLOBAL__N_110CapabilityINS2_8ClockDefEEEEEvT_S7_(ptr noundef %5, ptr noundef %6)
  ret void
}

; Function Attrs: noinline noreturn nounwind uwtable
define linkonce_odr hidden void @__clang_call_terminate(ptr noundef %0) #11 comdat {
  %2 = call ptr @__cxa_begin_catch(ptr %0) #3
  call void @_ZSt9terminatev() #19
  unreachable
}

; Function Attrs: mustprogress nounwind uwtable
define internal void @_ZNSt12_Vector_baseIN12_GLOBAL__N_110CapabilityINS0_8ClockDefEEESaIS3_EED2Ev(ptr noundef nonnull align 8 dereferenceable(24) %0) unnamed_addr #7 align 2 personality ptr @__gxx_personality_v0 {
  %2 = alloca ptr, align 8
  store ptr %0, ptr %2, align 8, !tbaa !454
  %3 = load ptr, ptr %2, align 8
  %4 = getelementptr inbounds nuw %"struct.std::_Vector_base.70", ptr %3, i32 0, i32 0
  %5 = getelementptr inbounds nuw %"struct.std::_Vector_base<(anonymous namespace)::Capability<(anonymous namespace)::ClockDef>, std::allocator<(anonymous namespace)::Capability<(anonymous namespace)::ClockDef>>>::_Vector_impl_data", ptr %4, i32 0, i32 0
  %6 = load ptr, ptr %5, align 8, !tbaa !929
  %7 = getelementptr inbounds nuw %"struct.std::_Vector_base.70", ptr %3, i32 0, i32 0
  %8 = getelementptr inbounds nuw %"struct.std::_Vector_base<(anonymous namespace)::Capability<(anonymous namespace)::ClockDef>, std::allocator<(anonymous namespace)::Capability<(anonymous namespace)::ClockDef>>>::_Vector_impl_data", ptr %7, i32 0, i32 2
  %9 = load ptr, ptr %8, align 8, !tbaa !931
  %10 = getelementptr inbounds nuw %"struct.std::_Vector_base.70", ptr %3, i32 0, i32 0
  %11 = getelementptr inbounds nuw %"struct.std::_Vector_base<(anonymous namespace)::Capability<(anonymous namespace)::ClockDef>, std::allocator<(anonymous namespace)::Capability<(anonymous namespace)::ClockDef>>>::_Vector_impl_data", ptr %10, i32 0, i32 0
  %12 = load ptr, ptr %11, align 8, !tbaa !929
  %13 = ptrtoint ptr %9 to i64
  %14 = ptrtoint ptr %12 to i64
  %15 = sub i64 %13, %14
  %16 = sdiv exact i64 %15, 152
  invoke void @_ZNSt12_Vector_baseIN12_GLOBAL__N_110CapabilityINS0_8ClockDefEEESaIS3_EE13_M_deallocateEPS3_m(ptr noundef nonnull align 8 dereferenceable(24) %3, ptr noundef %6, i64 noundef %16)
          to label %17 unwind label %19

17:                                               ; preds = %1
  %18 = getelementptr inbounds nuw %"struct.std::_Vector_base.70", ptr %3, i32 0, i32 0
  call void @_ZNSt15__new_allocatorIN12_GLOBAL__N_110CapabilityINS0_8ClockDefEEEED2Ev(ptr noundef nonnull align 8 dereferenceable(24) %18) #3
  ret void

19:                                               ; preds = %1
  %20 = landingpad { ptr, i32 }
          catch ptr null
  %21 = extractvalue { ptr, i32 } %20, 0
  call void @__clang_call_terminate(ptr %21) #19
  unreachable
}

; Function Attrs: inlinehint mustprogress uwtable
define internal void @_ZSt8_DestroyIPN12_GLOBAL__N_110CapabilityINS0_8ClockDefEEES3_EvT_S5_RSaIT0_E(ptr noundef %0, ptr noundef %1, ptr noundef nonnull align 1 dereferenceable(1) %2) #9 {
  %4 = alloca ptr, align 8
  %5 = alloca ptr, align 8
  %6 = alloca ptr, align 8
  store ptr %0, ptr %4, align 8, !tbaa !932
  store ptr %1, ptr %5, align 8, !tbaa !932
  store ptr %2, ptr %6, align 8, !tbaa !458
  %7 = load ptr, ptr %4, align 8, !tbaa !932
  %8 = load ptr, ptr %5, align 8, !tbaa !932
  call void @_ZSt8_DestroyIPN12_GLOBAL__N_110CapabilityINS0_8ClockDefEEEEvT_S5_(ptr noundef %7, ptr noundef %8)
  ret void
}

; Function Attrs: mustprogress nounwind uwtable
define internal noundef nonnull align 1 dereferenceable(1) ptr @_ZNSt12_Vector_baseIN12_GLOBAL__N_110CapabilityINS0_8ClockDefEEESaIS3_EE19_M_get_Tp_allocatorEv(ptr noundef nonnull align 8 dereferenceable(24) %0) #7 align 2 {
  %2 = alloca ptr, align 8
  store ptr %0, ptr %2, align 8, !tbaa !454
  %3 = load ptr, ptr %2, align 8
  %4 = getelementptr inbounds nuw %"struct.std::_Vector_base.70", ptr %3, i32 0, i32 0
  ret ptr %4
}

; Function Attrs: mustprogress nounwind uwtable
define internal void @_ZNSt6vectorIN12_GLOBAL__N_110CapabilityINS0_8ClockDefEEESaIS3_EED2Ev(ptr noundef nonnull align 8 dereferenceable(24) %0) unnamed_addr #7 align 2 personality ptr @__gxx_personality_v0 {
  %2 = alloca ptr, align 8
  store ptr %0, ptr %2, align 8, !tbaa !442
  %3 = load ptr, ptr %2, align 8
  %4 = getelementptr inbounds nuw %"struct.std::_Vector_base.70", ptr %3, i32 0, i32 0
  %5 = getelementptr inbounds nuw %"struct.std::_Vector_base<(anonymous namespace)::Capability<(anonymous namespace)::ClockDef>, std::allocator<(anonymous namespace)::Capability<(anonymous namespace)::ClockDef>>>::_Vector_impl_data", ptr %4, i32 0, i32 0
  %6 = load ptr, ptr %5, align 8, !tbaa !929
  %7 = getelementptr inbounds nuw %"struct.std::_Vector_base.70", ptr %3, i32 0, i32 0
  %8 = getelementptr inbounds nuw %"struct.std::_Vector_base<(anonymous namespace)::Capability<(anonymous namespace)::ClockDef>, std::allocator<(anonymous namespace)::Capability<(anonymous namespace)::ClockDef>>>::_Vector_impl_data", ptr %7, i32 0, i32 1
  %9 = load ptr, ptr %8, align 8, !tbaa !930
  %10 = call noundef nonnull align 1 dereferenceable(1) ptr @_ZNSt12_Vector_baseIN12_GLOBAL__N_110CapabilityINS0_8ClockDefEEESaIS3_EE19_M_get_Tp_allocatorEv(ptr noundef nonnull align 8 dereferenceable(24) %3) #3
  invoke void @_ZSt8_DestroyIPN12_GLOBAL__N_110CapabilityINS0_8ClockDefEEES3_EvT_S5_RSaIT0_E(ptr noundef %6, ptr noundef %9, ptr noundef nonnull align 1 dereferenceable(1) %10)
          to label %11 unwind label %12

11:                                               ; preds = %1
  call void @_ZNSt12_Vector_baseIN12_GLOBAL__N_110CapabilityINS0_8ClockDefEEESaIS3_EED2Ev(ptr noundef nonnull align 8 dereferenceable(24) %3) #3
  ret void

12:                                               ; preds = %1
  %13 = landingpad { ptr, i32 }
          catch ptr null
  %14 = extractvalue { ptr, i32 } %13, 0
  call void @__clang_call_terminate(ptr %14) #19
  unreachable
}